target datalayout = "e-m:e-p270:32:32-p271:32:32-p272:64:64-i64:64-i128:128-f80:128-n8:16:32:64-S128"
target triple = "x86_64-unknown-linux-gnu"

%"struct.node::AssertionInfo" = type { ptr, ptr, ptr }
%"class.v8::IndirectHandleBase" = type { ptr }
%struct.uv__queue = type { ptr, ptr }
%struct.uv_async_s = type { ptr, ptr, i32, ptr, %struct.uv__queue, %union.anon.33, ptr, i32, ptr, %struct.uv__queue, i32 }
%union.anon.33 = type { [4 x ptr] }
%"class.v8::Global.44" = type { %"class.v8::PersistentBase.45" }
%"class.v8::PersistentBase.45" = type { %"class.v8::IndirectHandleBase" }
%"class.node::MutexBase" = type { %union.pthread_mutex_t }
%union.pthread_mutex_t = type { %struct.__pthread_mutex_s }
%struct.__pthread_mutex_s = type { i32, i32, i32, i32, i32, i16, i16, %struct.__pthread_internal_list }
%struct.__pthread_internal_list = type { ptr, ptr }
%"class.v8::Global.293" = type { %"class.v8::PersistentBase.294" }
%"class.v8::PersistentBase.294" = type { %"class.v8::IndirectHandleBase" }
%"struct.node::async_context" = type { double, double }
%"class.v8impl::(anonymous namespace)::ThreadSafeFunction" = type <{ %"class.node::AsyncResource", %"class.node::MutexBase", %"class.std::unique_ptr.298", %"class.std::queue", %struct.uv_async_s, i64, i8, %"struct.std::atomic.309", [6 x i8], ptr, i64, %"class.v8::Global.44", ptr, ptr, ptr, ptr, i8, [7 x i8] }>
%"class.node::AsyncResource" = type { ptr, ptr, %"class.v8::Global.293", %"struct.node::async_context" }
%"class.std::unique_ptr.298" = type { %"struct.std::__uniq_ptr_data.299" }
%"struct.std::__uniq_ptr_data.299" = type { %"class.std::__uniq_ptr_impl.300" }
%"class.std::__uniq_ptr_impl.300" = type { %"class.std::tuple.301" }
%"class.std::tuple.301" = type { %"struct.std::_Tuple_impl.302" }
%"struct.std::_Tuple_impl.302" = type { %"struct.std::_Head_base.305" }
%"struct.std::_Head_base.305" = type { ptr }
%"class.std::queue" = type { %"class.std::deque" }
%"class.std::deque" = type { %"class.std::_Deque_base" }
%"class.std::_Deque_base" = type { %"struct.std::_Deque_base<void *, std::allocator<void *>>::_Deque_impl" }
%"struct.std::_Deque_base<void *, std::allocator<void *>>::_Deque_impl" = type { %"struct.std::_Deque_base<void *, std::allocator<void *>>::_Deque_impl_data" }
%"struct.std::_Deque_base<void *, std::allocator<void *>>::_Deque_impl_data" = type { ptr, i64, %"struct.std::_Deque_iterator", %"struct.std::_Deque_iterator" }
%"struct.std::_Deque_iterator" = type { ptr, ptr, ptr, ptr }
%"struct.std::atomic.309" = type { %"struct.std::__atomic_base.310" }
%"struct.std::__atomic_base.310" = type { i8 }

@_ZZ28napi_ref_threadsafe_functionE4args = internal constant %"struct.node::AssertionInfo" { ptr @.str.23, ptr @.str.11, ptr @.str.24 }, align 8

; Function Attrs: mustprogress nounwind uwtable
define internal noundef i32 @_ZN6v8impl12_GLOBAL__N_118ThreadSafeFunction3RefEv(ptr noundef nonnull align 8 dereferenceable(369) %this) #4 align 2 {
entry:
  %this.addr = alloca ptr, align 8
  store ptr %this, ptr %this.addr, align 8
  %this1 = load ptr, ptr %this.addr, align 8
  %async = getelementptr inbounds %"class.v8impl::(anonymous namespace)::ThreadSafeFunction", ptr %this1, i32 0, i32 4
  call void @uv_ref(ptr noundef %async)
  ret i32 0
}

; Function Attrs: mustprogress nounwind uwtable
define dso_local i32 @napi_ref_threadsafe_function(ptr noundef %env, ptr noundef %func) #4 {
entry:
  %env.addr = alloca ptr, align 8
  %func.addr = alloca ptr, align 8
  store ptr %env, ptr %env.addr, align 8
  store ptr %func, ptr %func.addr, align 8
  br label %do.body

do.body:                                          ; preds = %entry
  %0 = load ptr, ptr %func.addr, align 8
  %cmp = icmp ne ptr %0, null
  %lnot = xor i1 %cmp, true
  %lnot1 = xor i1 %lnot, true
  %lnot2 = xor i1 %lnot1, true
  br i1 %lnot2, label %if.then, label %if.end

if.then:                                          ; preds = %do.body
  br label %do.body3

do.body3:                                         ; preds = %if.then
  call void @_ZN4node6AssertERKNS_13AssertionInfoE(ptr noundef nonnull align 8 dereferenceable(24) @_ZZ28napi_ref_threadsafe_functionE4args)
  call void @abort() #14
  unreachable

do.end:                                           ; No predecessors!
  br label %if.end

if.end:                                           ; preds = %do.end, %do.body
  br label %do.end4

do.end4:                                          ; preds = %if.end
  %1 = load ptr, ptr %func.addr, align 8
  %call = call noundef i32 @_ZN6v8impl12_GLOBAL__N_118ThreadSafeFunction3RefEv(ptr noundef nonnull align 8 dereferenceable(369) %1)
  ret i32 %call
}