; Function Attrs: mustprogress nounwind uwtable
define dso_local noundef i32 @napi_ref_threadsafe_function(ptr nocapture noundef readnone %env, ptr noundef %func) local_unnamed_addr #3 {
entry:
  %cmp.not = icmp eq ptr %func, null
  br i1 %cmp.not, label %do.body3, label %do.end4

do.body3:                                         ; preds = %entry
  tail call void @_ZN4node6AssertERKNS_13AssertionInfoE(ptr noundef nonnull align 8 dereferenceable(24) @_ZZ28napi_ref_threadsafe_functionE4args) #21
  tail call void @abort() #22
  unreachable

do.end4:                                          ; preds = %entry
  %async.i = getelementptr inbounds i8, ptr %func, i64 168
  tail call void @uv_ref(ptr noundef nonnull %async.i) #21
  ret i32 0
}